; Function Attrs: nounwind uwtable
define internal void @prted_complete(ptr noundef %0) #0 {
  %2 = load ptr, ptr getelementptr inbounds nuw (i8, ptr @prte_mca_iof_prted_component, i64 464), align 8, !tbaa !74
  %.not19 = icmp eq ptr %2, getelementptr inbounds nuw (i8, ptr @prte_mca_iof_prted_component, i64 344)
  br i1 %.not19, label %._crit_edge, label %.lr.ph

.lr.ph:                                           ; preds = %1
  %3 = getelementptr inbounds nuw i8, ptr %0, i64 168
  br label %4

4:                                                ; preds = %.lr.ph, %38
  %.020 = phi ptr [ %2, %.lr.ph ], [ %.01422, %38 ]
  %.014.in21 = getelementptr inbounds nuw i8, ptr %.020, i64 120
  %.01422 = load ptr, ptr %.014.in21, align 8, !tbaa !35
  %5 = getelementptr inbounds nuw i8, ptr %.020, i64 144
  %6 = tail call zeroext i1 @PMIx_Check_nspace(ptr noundef nonnull %3, ptr noundef nonnull %5) #11
  br i1 %6, label %7, label %38

7:                                                ; preds = %4
  %8 = load ptr, ptr %.014.in21, align 8, !tbaa !35
  %9 = getelementptr inbounds nuw i8, ptr %.020, i64 128
  %10 = load ptr, ptr %9, align 8, !tbaa !38
  %11 = getelementptr inbounds nuw i8, ptr %10, i64 120
  store volatile ptr %8, ptr %11, align 8, !tbaa !35
  %12 = getelementptr inbounds nuw i8, ptr %8, i64 128
  store volatile ptr %10, ptr %12, align 8, !tbaa !38
  %13 = load volatile i64, ptr getelementptr inbounds nuw (i8, ptr @prte_mca_iof_prted_component, i64 488), align 8, !tbaa !39
  %14 = add i64 %13, -1
  store volatile i64 %14, ptr getelementptr inbounds nuw (i8, ptr @prte_mca_iof_prted_component, i64 488), align 8, !tbaa !39
  %15 = tail call i32 @pthread_mutex_lock(ptr noundef %.020) #11
  %16 = icmp eq i32 %15, 35
  br i1 %16, label %17, label %pmix_obj_update.exit

17:                                               ; preds = %7
  %18 = tail call ptr @__errno_location() #12
  store i32 35, ptr %18, align 4, !tbaa !20
  tail call void @perror(ptr noundef nonnull @.str.6) #14
  tail call void @abort() #15
  unreachable

pmix_obj_update.exit:                             ; preds = %7
  %19 = getelementptr inbounds nuw i8, ptr %.020, i64 48
  %20 = load i32, ptr %19, align 8, !tbaa !24
  %21 = add nsw i32 %20, -1
  store i32 %21, ptr %19, align 8, !tbaa !24
  %22 = tail call i32 @pthread_mutex_unlock(ptr noundef %.020) #11
  %23 = icmp eq i32 %21, 0
  br i1 %23, label %24, label %38

24:                                               ; preds = %pmix_obj_update.exit
  %25 = getelementptr inbounds nuw i8, ptr %.020, i64 40
  %26 = load ptr, ptr %25, align 8, !tbaa !23
  %27 = getelementptr inbounds nuw i8, ptr %26, i64 48
  %28 = load ptr, ptr %27, align 8, !tbaa !70
  %29 = load ptr, ptr %28, align 8, !tbaa !26
  %.not6.i = icmp eq ptr %29, null
  br i1 %.not6.i, label %pmix_obj_run_destructors.exit, label %.lr.ph.i

.lr.ph.i:                                         ; preds = %24, %.lr.ph.i
  %30 = phi ptr [ %32, %.lr.ph.i ], [ %29, %24 ]
  %.07.i = phi ptr [ %31, %.lr.ph.i ], [ %28, %24 ]
  tail call void %30(ptr noundef %.020) #11
  %31 = getelementptr inbounds nuw i8, ptr %.07.i, i64 8
  %32 = load ptr, ptr %31, align 8, !tbaa !26
  %.not.i = icmp eq ptr %32, null
  br i1 %.not.i, label %pmix_obj_run_destructors.exit, label %.lr.ph.i, !llvm.loop !71

pmix_obj_run_destructors.exit:                    ; preds = %.lr.ph.i, %24
  %33 = getelementptr inbounds nuw i8, ptr %.020, i64 96
  %34 = load ptr, ptr %33, align 8, !tbaa !72
  %.not15 = icmp eq ptr %34, null
  br i1 %.not15, label %37, label %35

35:                                               ; preds = %pmix_obj_run_destructors.exit
  %36 = getelementptr inbounds nuw i8, ptr %.020, i64 56
  tail call void %34(ptr noundef nonnull %36, ptr noundef nonnull %.020) #11
  br label %38

37:                                               ; preds = %pmix_obj_run_destructors.exit
  tail call void @free(ptr noundef nonnull %.020) #11
  br label %38

38:                                               ; preds = %pmix_obj_update.exit, %37, %35, %4
  %.not = icmp eq ptr %.01422, getelementptr inbounds nuw (i8, ptr @prte_mca_iof_prted_component, i64 344)
  br i1 %.not, label %._crit_edge, label %4, !llvm.loop !75

._crit_edge:                                      ; preds = %38, %1
  ret void
}